target datalayout = "e-m:e-p270:32:32-p271:32:32-p272:64:64-i64:64-i128:128-f80:128-n8:16:32:64-S128"
target triple = "x86_64-pc-linux-gnu"

@true_const = internal global ptr null, align 8
@false_const = internal global ptr null, align 8
@null_const = internal global ptr null, align 8

; Function Attrs: nounwind uwtable
define dso_local ptr @_zend_get_special_const(ptr noundef %0, i64 noundef %1) #0 {
  %3 = alloca ptr, align 8
  %4 = alloca ptr, align 8
  %5 = alloca i64, align 8
  store ptr %0, ptr %4, align 8, !tbaa !56
  store i64 %1, ptr %5, align 8, !tbaa !57
  %6 = load i64, ptr %5, align 8, !tbaa !57
  %7 = icmp eq i64 %6, 4
  br i1 %7, label %8, label %109

8:                                                ; preds = %2
  %9 = load ptr, ptr %4, align 8, !tbaa !56
  %10 = getelementptr inbounds i8, ptr %9, i64 0
  %11 = load i8, ptr %10, align 1, !tbaa !9
  %12 = sext i8 %11 to i32
  %13 = icmp eq i32 %12, 110
  br i1 %13, label %20, label %14

14:                                               ; preds = %8
  %15 = load ptr, ptr %4, align 8, !tbaa !56
  %16 = getelementptr inbounds i8, ptr %15, i64 0
  %17 = load i8, ptr %16, align 1, !tbaa !9
  %18 = sext i8 %17 to i32
  %19 = icmp eq i32 %18, 78
  br i1 %19, label %20, label %58

20:                                               ; preds = %14, %8
  %21 = load ptr, ptr %4, align 8, !tbaa !56
  %22 = getelementptr inbounds i8, ptr %21, i64 1
  %23 = load i8, ptr %22, align 1, !tbaa !9
  %24 = sext i8 %23 to i32
  %25 = icmp eq i32 %24, 117
  br i1 %25, label %32, label %26

26:                                               ; preds = %20
  %27 = load ptr, ptr %4, align 8, !tbaa !56
  %28 = getelementptr inbounds i8, ptr %27, i64 1
  %29 = load i8, ptr %28, align 1, !tbaa !9
  %30 = sext i8 %29 to i32
  %31 = icmp eq i32 %30, 85
  br i1 %31, label %32, label %58

32:                                               ; preds = %26, %20
  %33 = load ptr, ptr %4, align 8, !tbaa !56
  %34 = getelementptr inbounds i8, ptr %33, i64 2
  %35 = load i8, ptr %34, align 1, !tbaa !9
  %36 = sext i8 %35 to i32
  %37 = icmp eq i32 %36, 108
  br i1 %37, label %44, label %38

38:                                               ; preds = %32
  %39 = load ptr, ptr %4, align 8, !tbaa !56
  %40 = getelementptr inbounds i8, ptr %39, i64 2
  %41 = load i8, ptr %40, align 1, !tbaa !9
  %42 = sext i8 %41 to i32
  %43 = icmp eq i32 %42, 76
  br i1 %43, label %44, label %58

44:                                               ; preds = %38, %32
  %45 = load ptr, ptr %4, align 8, !tbaa !56
  %46 = getelementptr inbounds i8, ptr %45, i64 3
  %47 = load i8, ptr %46, align 1, !tbaa !9
  %48 = sext i8 %47 to i32
  %49 = icmp eq i32 %48, 108
  br i1 %49, label %56, label %50

50:                                               ; preds = %44
  %51 = load ptr, ptr %4, align 8, !tbaa !56
  %52 = getelementptr inbounds i8, ptr %51, i64 3
  %53 = load i8, ptr %52, align 1, !tbaa !9
  %54 = sext i8 %53 to i32
  %55 = icmp eq i32 %54, 76
  br i1 %55, label %56, label %58

56:                                               ; preds = %50, %44
  %57 = load ptr, ptr @null_const, align 8, !tbaa !10
  store ptr %57, ptr %3, align 8
  br label %173

58:                                               ; preds = %50, %38, %26, %14
  %59 = load ptr, ptr %4, align 8, !tbaa !56
  %60 = getelementptr inbounds i8, ptr %59, i64 0
  %61 = load i8, ptr %60, align 1, !tbaa !9
  %62 = sext i8 %61 to i32
  %63 = icmp eq i32 %62, 116
  br i1 %63, label %70, label %64

64:                                               ; preds = %58
  %65 = load ptr, ptr %4, align 8, !tbaa !56
  %66 = getelementptr inbounds i8, ptr %65, i64 0
  %67 = load i8, ptr %66, align 1, !tbaa !9
  %68 = sext i8 %67 to i32
  %69 = icmp eq i32 %68, 84
  br i1 %69, label %70, label %108

70:                                               ; preds = %64, %58
  %71 = load ptr, ptr %4, align 8, !tbaa !56
  %72 = getelementptr inbounds i8, ptr %71, i64 1
  %73 = load i8, ptr %72, align 1, !tbaa !9
  %74 = sext i8 %73 to i32
  %75 = icmp eq i32 %74, 114
  br i1 %75, label %82, label %76

76:                                               ; preds = %70
  %77 = load ptr, ptr %4, align 8, !tbaa !56
  %78 = getelementptr inbounds i8, ptr %77, i64 1
  %79 = load i8, ptr %78, align 1, !tbaa !9
  %80 = sext i8 %79 to i32
  %81 = icmp eq i32 %80, 82
  br i1 %81, label %82, label %108

82:                                               ; preds = %76, %70
  %83 = load ptr, ptr %4, align 8, !tbaa !56
  %84 = getelementptr inbounds i8, ptr %83, i64 2
  %85 = load i8, ptr %84, align 1, !tbaa !9
  %86 = sext i8 %85 to i32
  %87 = icmp eq i32 %86, 117
  br i1 %87, label %94, label %88

88:                                               ; preds = %82
  %89 = load ptr, ptr %4, align 8, !tbaa !56
  %90 = getelementptr inbounds i8, ptr %89, i64 2
  %91 = load i8, ptr %90, align 1, !tbaa !9
  %92 = sext i8 %91 to i32
  %93 = icmp eq i32 %92, 85
  br i1 %93, label %94, label %108

94:                                               ; preds = %88, %82
  %95 = load ptr, ptr %4, align 8, !tbaa !56
  %96 = getelementptr inbounds i8, ptr %95, i64 3
  %97 = load i8, ptr %96, align 1, !tbaa !9
  %98 = sext i8 %97 to i32
  %99 = icmp eq i32 %98, 101
  br i1 %99, label %106, label %100

100:                                              ; preds = %94
  %101 = load ptr, ptr %4, align 8, !tbaa !56
  %102 = getelementptr inbounds i8, ptr %101, i64 3
  %103 = load i8, ptr %102, align 1, !tbaa !9
  %104 = sext i8 %103 to i32
  %105 = icmp eq i32 %104, 69
  br i1 %105, label %106, label %108

106:                                              ; preds = %100, %94
  %107 = load ptr, ptr @true_const, align 8, !tbaa !10
  store ptr %107, ptr %3, align 8
  br label %173

108:                                              ; preds = %100, %88, %76, %64
  br label %172

109:                                              ; preds = %2
  %110 = load ptr, ptr %4, align 8, !tbaa !56
  %111 = getelementptr inbounds i8, ptr %110, i64 0
  %112 = load i8, ptr %111, align 1, !tbaa !9
  %113 = sext i8 %112 to i32
  %114 = icmp eq i32 %113, 102
  br i1 %114, label %121, label %115

115:                                              ; preds = %109
  %116 = load ptr, ptr %4, align 8, !tbaa !56
  %117 = getelementptr inbounds i8, ptr %116, i64 0
  %118 = load i8, ptr %117, align 1, !tbaa !9
  %119 = sext i8 %118 to i32
  %120 = icmp eq i32 %119, 70
  br i1 %120, label %121, label %171

121:                                              ; preds = %115, %109
  %122 = load ptr, ptr %4, align 8, !tbaa !56
  %123 = getelementptr inbounds i8, ptr %122, i64 1
  %124 = load i8, ptr %123, align 1, !tbaa !9
  %125 = sext i8 %124 to i32
  %126 = icmp eq i32 %125, 97
  br i1 %126, label %133, label %127

127:                                              ; preds = %121
  %128 = load ptr, ptr %4, align 8, !tbaa !56
  %129 = getelementptr inbounds i8, ptr %128, i64 1
  %130 = load i8, ptr %129, align 1, !tbaa !9
  %131 = sext i8 %130 to i32
  %132 = icmp eq i32 %131, 65
  br i1 %132, label %133, label %171

133:                                              ; preds = %127, %121
  %134 = load ptr, ptr %4, align 8, !tbaa !56
  %135 = getelementptr inbounds i8, ptr %134, i64 2
  %136 = load i8, ptr %135, align 1, !tbaa !9
  %137 = sext i8 %136 to i32
  %138 = icmp eq i32 %137, 108
  br i1 %138, label %145, label %139

139:                                              ; preds = %133
  %140 = load ptr, ptr %4, align 8, !tbaa !56
  %141 = getelementptr inbounds i8, ptr %140, i64 2
  %142 = load i8, ptr %141, align 1, !tbaa !9
  %143 = sext i8 %142 to i32
  %144 = icmp eq i32 %143, 76
  br i1 %144, label %145, label %171

145:                                              ; preds = %139, %133
  %146 = load ptr, ptr %4, align 8, !tbaa !56
  %147 = getelementptr inbounds i8, ptr %146, i64 3
  %148 = load i8, ptr %147, align 1, !tbaa !9
  %149 = sext i8 %148 to i32
  %150 = icmp eq i32 %149, 115
  br i1 %150, label %157, label %151

151:                                              ; preds = %145
  %152 = load ptr, ptr %4, align 8, !tbaa !56
  %153 = getelementptr inbounds i8, ptr %152, i64 3
  %154 = load i8, ptr %153, align 1, !tbaa !9
  %155 = sext i8 %154 to i32
  %156 = icmp eq i32 %155, 83
  br i1 %156, label %157, label %171

157:                                              ; preds = %151, %145
  %158 = load ptr, ptr %4, align 8, !tbaa !56
  %159 = getelementptr inbounds i8, ptr %158, i64 4
  %160 = load i8, ptr %159, align 1, !tbaa !9
  %161 = sext i8 %160 to i32
  %162 = icmp eq i32 %161, 101
  br i1 %162, label %169, label %163

163:                                              ; preds = %157
  %164 = load ptr, ptr %4, align 8, !tbaa !56
  %165 = getelementptr inbounds i8, ptr %164, i64 4
  %166 = load i8, ptr %165, align 1, !tbaa !9
  %167 = sext i8 %166 to i32
  %168 = icmp eq i32 %167, 69
  br i1 %168, label %169, label %171

169:                                              ; preds = %163, %157
  %170 = load ptr, ptr @false_const, align 8, !tbaa !10
  store ptr %170, ptr %3, align 8
  br label %173

171:                                              ; preds = %163, %151, %139, %127, %115
  br label %172

172:                                              ; preds = %171, %108
  store ptr null, ptr %3, align 8
  br label %173

173:                                              ; preds = %172, %169, %106, %56
  %174 = load ptr, ptr %3, align 8
  ret ptr %174
}