; Function Attrs: mustprogress nofree norecurse nosync nounwind willreturn memory(read, inaccessiblemem: none) uwtable
define dso_local ptr @_zend_get_special_const(ptr noundef readonly captures(none) %0, i64 noundef %1) local_unnamed_addr #4 {
  %3 = icmp eq i64 %1, 4
  %4 = load i8, ptr %0, align 1, !tbaa !4
  br i1 %3, label %5, label %29

5:                                                ; preds = %2
  switch i8 %4, label %44 [
    i8 110, label %6
    i8 78, label %6
    i8 116, label %18
    i8 84, label %18
  ]

6:                                                ; preds = %5, %5
  %7 = getelementptr inbounds nuw i8, ptr %0, i64 1
  %8 = load i8, ptr %7, align 1, !tbaa !4
  switch i8 %8, label %17 [
    i8 117, label %9
    i8 85, label %9
  ]

9:                                                ; preds = %6, %6
  %10 = getelementptr inbounds nuw i8, ptr %0, i64 2
  %11 = load i8, ptr %10, align 1, !tbaa !4
  switch i8 %11, label %17 [
    i8 108, label %12
    i8 76, label %12
  ]

12:                                               ; preds = %9, %9
  %13 = getelementptr inbounds nuw i8, ptr %0, i64 3
  %14 = load i8, ptr %13, align 1, !tbaa !4
  switch i8 %14, label %17 [
    i8 108, label %15
    i8 76, label %15
  ]

15:                                               ; preds = %12, %12
  %16 = load ptr, ptr @null_const, align 8, !tbaa !50
  br label %44

17:                                               ; preds = %12, %9, %6
  %cond = icmp eq i8 %4, 84
  br i1 %cond, label %18, label %44

18:                                               ; preds = %17, %5, %5
  %19 = getelementptr inbounds nuw i8, ptr %0, i64 1
  %20 = load i8, ptr %19, align 1, !tbaa !4
  switch i8 %20, label %44 [
    i8 114, label %21
    i8 82, label %21
  ]

21:                                               ; preds = %18, %18
  %22 = getelementptr inbounds nuw i8, ptr %0, i64 2
  %23 = load i8, ptr %22, align 1, !tbaa !4
  switch i8 %23, label %44 [
    i8 117, label %24
    i8 85, label %24
  ]

24:                                               ; preds = %21, %21
  %25 = getelementptr inbounds nuw i8, ptr %0, i64 3
  %26 = load i8, ptr %25, align 1, !tbaa !4
  switch i8 %26, label %44 [
    i8 101, label %27
    i8 69, label %27
  ]

27:                                               ; preds = %24, %24
  %28 = load ptr, ptr @true_const, align 8, !tbaa !50
  br label %44

29:                                               ; preds = %2
  switch i8 %4, label %44 [
    i8 102, label %30
    i8 70, label %30
  ]

30:                                               ; preds = %29, %29
  %31 = getelementptr inbounds nuw i8, ptr %0, i64 1
  %32 = load i8, ptr %31, align 1, !tbaa !4
  switch i8 %32, label %44 [
    i8 97, label %33
    i8 65, label %33
  ]

33:                                               ; preds = %30, %30
  %34 = getelementptr inbounds nuw i8, ptr %0, i64 2
  %35 = load i8, ptr %34, align 1, !tbaa !4
  switch i8 %35, label %44 [
    i8 108, label %36
    i8 76, label %36
  ]

36:                                               ; preds = %33, %33
  %37 = getelementptr inbounds nuw i8, ptr %0, i64 3
  %38 = load i8, ptr %37, align 1, !tbaa !4
  switch i8 %38, label %44 [
    i8 115, label %39
    i8 83, label %39
  ]

39:                                               ; preds = %36, %36
  %40 = getelementptr inbounds nuw i8, ptr %0, i64 4
  %41 = load i8, ptr %40, align 1, !tbaa !4
  switch i8 %41, label %44 [
    i8 101, label %42
    i8 69, label %42
  ]

42:                                               ; preds = %39, %39
  %43 = load ptr, ptr @false_const, align 8, !tbaa !50
  br label %44

44:                                               ; preds = %17, %5, %18, %21, %24, %29, %30, %33, %36, %39, %42, %27, %15
  %.0 = phi ptr [ %16, %15 ], [ %28, %27 ], [ %43, %42 ], [ null, %39 ], [ null, %36 ], [ null, %33 ], [ null, %30 ], [ null, %29 ], [ null, %24 ], [ null, %21 ], [ null, %18 ], [ null, %17 ], [ null, %5 ]
  ret ptr %.0
}